target datalayout = "e-m:e-p270:32:32-p271:32:32-p272:64:64-i64:64-i128:128-f80:128-n8:16:32:64-S128"
target triple = "x86_64-unknown-linux-gnu"

%"class.icu_75::MessageFormat" = type { %"class.icu_75::Format.base", [6 x i8], %"class.icu_75::Locale", %"class.icu_75::MessagePattern", ptr, i32, ptr, i32, i32, i8, ptr, ptr, ptr, ptr, %"class.icu_75::MessageFormat::PluralSelectorProvider", %"class.icu_75::MessageFormat::PluralSelectorProvider" }
%"class.icu_75::Format.base" = type <{ %"class.icu_75::UObject", [157 x i8], [157 x i8] }>
%"class.icu_75::UObject" = type { ptr }
%"class.icu_75::Locale" = type <{ %"class.icu_75::UObject", [12 x i8], [6 x i8], [4 x i8], [2 x i8], i32, [4 x i8], ptr, [157 x i8], [3 x i8], ptr, i8, [7 x i8] }>
%"class.icu_75::MessagePattern" = type <{ %"class.icu_75::UObject", i32, [4 x i8], %"class.icu_75::UnicodeString", ptr, ptr, i32, [4 x i8], ptr, ptr, i32, i8, i8, i8, i8 }>
%"class.icu_75::UnicodeString" = type { %"class.icu_75::Replaceable", %"union.icu_75::UnicodeString::StackBufferOrFields" }
%"class.icu_75::Replaceable" = type { %"class.icu_75::UObject" }
%"union.icu_75::UnicodeString::StackBufferOrFields" = type { %struct.anon.0, [32 x i8] }
%struct.anon.0 = type { i16, i32, i32, ptr }
%"class.icu_75::MessageFormat::PluralSelectorProvider" = type <{ %"class.icu_75::PluralFormat::PluralSelector", ptr, ptr, i32, [4 x i8] }>
%"class.icu_75::PluralFormat::PluralSelector" = type { ptr }
%struct.UHashElement = type { i32, %union.UElement, %union.UElement }
%union.UElement = type { ptr }

; Function Attrs: mustprogress uwtable
define linkonce_odr noundef zeroext i1 @_ZNK6icu_756FormatneERKS0_(ptr noundef nonnull align 8 dereferenceable(322) %this, ptr noundef nonnull align 8 dereferenceable(322) %other) #1 comdat align 2 {
entry:
  %this.addr = alloca ptr, align 8
  %other.addr = alloca ptr, align 8
  store ptr %this, ptr %this.addr, align 8
  store ptr %other, ptr %other.addr, align 8
  %this1 = load ptr, ptr %this.addr, align 8
  %0 = load ptr, ptr %other.addr, align 8
  %vtable = load ptr, ptr %this1, align 8
  %vfn = getelementptr inbounds ptr, ptr %vtable, i64 3
  %1 = load ptr, ptr %vfn, align 8
  %call = call noundef zeroext i1 %1(ptr noundef nonnull align 8 dereferenceable(322) %this1, ptr noundef nonnull align 8 dereferenceable(322) %0)
  %lnot = xor i1 %call, true
  ret i1 %lnot
}

; Function Attrs: mustprogress nounwind uwtable
define internal noundef signext i8 @_ZL9U_SUCCESS10UErrorCode(i32 noundef %code) #0 {
entry:
  %code.addr = alloca i32, align 4
  store i32 %code, ptr %code.addr, align 4
  %0 = load i32, ptr %code.addr, align 4
  %cmp = icmp sle i32 %0, 0
  %conv = zext i1 %cmp to i8
  ret i8 %conv
}

; Function Attrs: mustprogress uwtable
define linkonce_odr noundef zeroext i1 @_ZNK6icu_756LocaleneERKS0_(ptr noundef nonnull align 8 dereferenceable(217) %this, ptr noundef nonnull align 8 dereferenceable(217) %other) #1 comdat align 2 {
entry:
  %this.addr = alloca ptr, align 8
  %other.addr = alloca ptr, align 8
  store ptr %this, ptr %this.addr, align 8
  store ptr %other, ptr %other.addr, align 8
  %this1 = load ptr, ptr %this.addr, align 8
  %0 = load ptr, ptr %other.addr, align 8
  %call = call noundef zeroext i1 @_ZNK6icu_756LocaleeqERKS0_(ptr noundef nonnull align 8 dereferenceable(217) %this1, ptr noundef nonnull align 8 dereferenceable(217) %0)
  %lnot = xor i1 %call, true
  ret i1 %lnot
}

; Function Attrs: mustprogress uwtable
define linkonce_odr noundef zeroext i1 @_ZNK6icu_7514MessagePatternneERKS0_(ptr noundef nonnull align 8 dereferenceable(127) %this, ptr noundef nonnull align 8 dereferenceable(127) %other) #1 comdat align 2 {
entry:
  %this.addr = alloca ptr, align 8
  %other.addr = alloca ptr, align 8
  store ptr %this, ptr %this.addr, align 8
  store ptr %other, ptr %other.addr, align 8
  %this1 = load ptr, ptr %this.addr, align 8
  %0 = load ptr, ptr %other.addr, align 8
  %call = call noundef zeroext i1 @_ZNK6icu_7514MessagePatterneqERKS0_(ptr noundef nonnull align 8 dereferenceable(127) %this1, ptr noundef nonnull align 8 dereferenceable(127) %0)
  %lnot = xor i1 %call, true
  ret i1 %lnot
}

; Function Attrs: mustprogress uwtable
define noundef zeroext i1 @_ZNK6icu_7513MessageFormateqERKNS_6FormatE(ptr noundef nonnull align 8 dereferenceable(816) %this, ptr noundef nonnull align 8 dereferenceable(322) %rhs) unnamed_addr #1 align 2 {
entry:
  %retval = alloca i1, align 1
  %this.addr = alloca ptr, align 8
  %rhs.addr = alloca ptr, align 8
  %that = alloca ptr, align 8
  %ec = alloca i32, align 4
  %count = alloca i32, align 4
  %rhs_count = alloca i32, align 4
  %idx = alloca i32, align 4
  %rhs_idx = alloca i32, align 4
  %pos = alloca i32, align 4
  %rhs_pos = alloca i32, align 4
  %cur = alloca ptr, align 8
  %rhs_cur = alloca ptr, align 8
  %format = alloca ptr, align 8
  %rhs_format = alloca ptr, align 8
  store ptr %this, ptr %this.addr, align 8
  store ptr %rhs, ptr %rhs.addr, align 8
  %this1 = load ptr, ptr %this.addr, align 8
  %0 = load ptr, ptr %rhs.addr, align 8
  %cmp = icmp eq ptr %this1, %0
  br i1 %cmp, label %if.then, label %if.end

if.then:                                          ; preds = %entry
  store i1 true, ptr %retval, align 1
  br label %return

if.end:                                           ; preds = %entry
  %1 = load ptr, ptr %rhs.addr, align 8
  %call = call noundef zeroext i1 @_ZNK6icu_756FormateqERKS0_(ptr noundef nonnull align 8 dereferenceable(322) %this1, ptr noundef nonnull align 8 dereferenceable(322) %1)
  br i1 %call, label %if.end3, label %if.then2

if.then2:                                         ; preds = %if.end
  store i1 false, ptr %retval, align 1
  br label %return

if.end3:                                          ; preds = %if.end
  %2 = load ptr, ptr %rhs.addr, align 8
  store ptr %2, ptr %that, align 8
  %msgPattern = getelementptr inbounds %"class.icu_75::MessageFormat", ptr %this1, i32 0, i32 3
  %3 = load ptr, ptr %that, align 8
  %msgPattern4 = getelementptr inbounds %"class.icu_75::MessageFormat", ptr %3, i32 0, i32 3
  %call5 = call noundef zeroext i1 @_ZNK6icu_7514MessagePatternneERKS0_(ptr noundef nonnull align 8 dereferenceable(127) %msgPattern, ptr noundef nonnull align 8 dereferenceable(127) %msgPattern4)
  br i1 %call5, label %if.then8, label %lor.lhs.false

lor.lhs.false:                                    ; preds = %if.end3
  %fLocale = getelementptr inbounds %"class.icu_75::MessageFormat", ptr %this1, i32 0, i32 2
  %4 = load ptr, ptr %that, align 8
  %fLocale6 = getelementptr inbounds %"class.icu_75::MessageFormat", ptr %4, i32 0, i32 2
  %call7 = call noundef zeroext i1 @_ZNK6icu_756LocaleneERKS0_(ptr noundef nonnull align 8 dereferenceable(217) %fLocale, ptr noundef nonnull align 8 dereferenceable(217) %fLocale6)
  br i1 %call7, label %if.then8, label %if.end9

if.then8:                                         ; preds = %lor.lhs.false, %if.end3
  store i1 false, ptr %retval, align 1
  br label %return

if.end9:                                          ; preds = %lor.lhs.false
  %customFormatArgStarts = getelementptr inbounds %"class.icu_75::MessageFormat", ptr %this1, i32 0, i32 13
  %5 = load ptr, ptr %customFormatArgStarts, align 8
  %cmp10 = icmp eq ptr %5, null
  %conv = zext i1 %cmp10 to i32
  %6 = load ptr, ptr %that, align 8
  %customFormatArgStarts11 = getelementptr inbounds %"class.icu_75::MessageFormat", ptr %6, i32 0, i32 13
  %7 = load ptr, ptr %customFormatArgStarts11, align 8
  %cmp12 = icmp eq ptr %7, null
  %conv13 = zext i1 %cmp12 to i32
  %cmp14 = icmp ne i32 %conv, %conv13
  br i1 %cmp14, label %if.then15, label %if.end16

if.then15:                                        ; preds = %if.end9
  store i1 false, ptr %retval, align 1
  br label %return

if.end16:                                         ; preds = %if.end9
  %customFormatArgStarts17 = getelementptr inbounds %"class.icu_75::MessageFormat", ptr %this1, i32 0, i32 13
  %8 = load ptr, ptr %customFormatArgStarts17, align 8
  %cmp18 = icmp eq ptr %8, null
  br i1 %cmp18, label %if.then19, label %if.end20

if.then19:                                        ; preds = %if.end16
  store i1 true, ptr %retval, align 1
  br label %return

if.end20:                                         ; preds = %if.end16
  store i32 0, ptr %ec, align 4
  %customFormatArgStarts21 = getelementptr inbounds %"class.icu_75::MessageFormat", ptr %this1, i32 0, i32 13
  %9 = load ptr, ptr %customFormatArgStarts21, align 8
  %call22 = call i32 @uhash_count_75(ptr noundef %9)
  store i32 %call22, ptr %count, align 4
  %10 = load ptr, ptr %that, align 8
  %customFormatArgStarts23 = getelementptr inbounds %"class.icu_75::MessageFormat", ptr %10, i32 0, i32 13
  %11 = load ptr, ptr %customFormatArgStarts23, align 8
  %call24 = call i32 @uhash_count_75(ptr noundef %11)
  store i32 %call24, ptr %rhs_count, align 4
  %12 = load i32, ptr %count, align 4
  %13 = load i32, ptr %rhs_count, align 4
  %cmp25 = icmp ne i32 %12, %13
  br i1 %cmp25, label %if.then26, label %if.end27

if.then26:                                        ; preds = %if.end20
  store i1 false, ptr %retval, align 1
  br label %return

if.end27:                                         ; preds = %if.end20
  store i32 0, ptr %idx, align 4
  store i32 0, ptr %rhs_idx, align 4
  store i32 -1, ptr %pos, align 4
  store i32 -1, ptr %rhs_pos, align 4
  br label %for.cond

for.cond:                                         ; preds = %for.inc, %if.end27
  %14 = load i32, ptr %idx, align 4
  %15 = load i32, ptr %count, align 4
  %cmp28 = icmp slt i32 %14, %15
  br i1 %cmp28, label %land.lhs.true, label %land.end

land.lhs.true:                                    ; preds = %for.cond
  %16 = load i32, ptr %rhs_idx, align 4
  %17 = load i32, ptr %rhs_count, align 4
  %cmp29 = icmp slt i32 %16, %17
  br i1 %cmp29, label %land.rhs, label %land.end

land.rhs:                                         ; preds = %land.lhs.true
  %18 = load i32, ptr %ec, align 4
  %call30 = call noundef signext i8 @_ZL9U_SUCCESS10UErrorCode(i32 noundef %18)
  %tobool = icmp ne i8 %call30, 0
  br label %land.end

land.end:                                         ; preds = %land.rhs, %land.lhs.true, %for.cond
  %19 = phi i1 [ false, %land.lhs.true ], [ false, %for.cond ], [ %tobool, %land.rhs ]
  br i1 %19, label %for.body, label %for.end

for.body:                                         ; preds = %land.end
  %customFormatArgStarts31 = getelementptr inbounds %"class.icu_75::MessageFormat", ptr %this1, i32 0, i32 13
  %20 = load ptr, ptr %customFormatArgStarts31, align 8
  %call32 = call ptr @uhash_nextElement_75(ptr noundef %20, ptr noundef %pos)
  store ptr %call32, ptr %cur, align 8
  %21 = load ptr, ptr %that, align 8
  %customFormatArgStarts33 = getelementptr inbounds %"class.icu_75::MessageFormat", ptr %21, i32 0, i32 13
  %22 = load ptr, ptr %customFormatArgStarts33, align 8
  %call34 = call ptr @uhash_nextElement_75(ptr noundef %22, ptr noundef %rhs_pos)
  store ptr %call34, ptr %rhs_cur, align 8
  %23 = load ptr, ptr %cur, align 8
  %key = getelementptr inbounds %struct.UHashElement, ptr %23, i32 0, i32 2
  %24 = load i32, ptr %key, align 8
  %25 = load ptr, ptr %rhs_cur, align 8
  %key35 = getelementptr inbounds %struct.UHashElement, ptr %25, i32 0, i32 2
  %26 = load i32, ptr %key35, align 8
  %cmp36 = icmp ne i32 %24, %26
  br i1 %cmp36, label %if.then37, label %if.end38

if.then37:                                        ; preds = %for.body
  store i1 false, ptr %retval, align 1
  br label %return

if.end38:                                         ; preds = %for.body
  %cachedFormatters = getelementptr inbounds %"class.icu_75::MessageFormat", ptr %this1, i32 0, i32 12
  %27 = load ptr, ptr %cachedFormatters, align 8
  %28 = load ptr, ptr %cur, align 8
  %key39 = getelementptr inbounds %struct.UHashElement, ptr %28, i32 0, i32 2
  %29 = load i32, ptr %key39, align 8
  %call40 = call ptr @uhash_iget_75(ptr noundef %27, i32 noundef %29)
  store ptr %call40, ptr %format, align 8
  %30 = load ptr, ptr %that, align 8
  %cachedFormatters41 = getelementptr inbounds %"class.icu_75::MessageFormat", ptr %30, i32 0, i32 12
  %31 = load ptr, ptr %cachedFormatters41, align 8
  %32 = load ptr, ptr %rhs_cur, align 8
  %key42 = getelementptr inbounds %struct.UHashElement, ptr %32, i32 0, i32 2
  %33 = load i32, ptr %key42, align 8
  %call43 = call ptr @uhash_iget_75(ptr noundef %31, i32 noundef %33)
  store ptr %call43, ptr %rhs_format, align 8
  %34 = load ptr, ptr %format, align 8
  %35 = load ptr, ptr %rhs_format, align 8
  %call44 = call noundef zeroext i1 @_ZNK6icu_756FormatneERKS0_(ptr noundef nonnull align 8 dereferenceable(322) %34, ptr noundef nonnull align 8 dereferenceable(322) %35)
  br i1 %call44, label %if.then45, label %if.end46

if.then45:                                        ; preds = %if.end38
  store i1 false, ptr %retval, align 1
  br label %return

if.end46:                                         ; preds = %if.end38
  br label %for.inc

for.inc:                                          ; preds = %if.end46
  %36 = load i32, ptr %idx, align 4
  %inc = add nsw i32 %36, 1
  store i32 %inc, ptr %idx, align 4
  %37 = load i32, ptr %rhs_idx, align 4
  %inc47 = add nsw i32 %37, 1
  store i32 %inc47, ptr %rhs_idx, align 4
  br label %for.cond, !llvm.loop !7

for.end:                                          ; preds = %land.end
  store i1 true, ptr %retval, align 1
  br label %return

return:                                           ; preds = %for.end, %if.then45, %if.then37, %if.then26, %if.then19, %if.then15, %if.then8, %if.then2, %if.then
  %38 = load i1, ptr %retval, align 1
  ret i1 %38
}