; Function Attrs: mustprogress uwtable
define noundef zeroext i1 @_ZNK6icu_7513MessageFormateqERKNS_6FormatE(ptr noundef nonnull align 8 dereferenceable(816) %this, ptr noundef nonnull align 8 dereferenceable(322) %rhs) unnamed_addr #1 align 2 {
entry:
  %pos = alloca i32, align 4
  %rhs_pos = alloca i32, align 4
  %cmp = icmp eq ptr %this, %rhs
  br i1 %cmp, label %return, label %if.end

if.end:                                           ; preds = %entry
  %call = tail call noundef zeroext i1 @_ZNK6icu_756FormateqERKS0_(ptr noundef nonnull align 8 dereferenceable(322) %this, ptr noundef nonnull align 8 dereferenceable(322) %rhs)
  br i1 %call, label %if.end3, label %return

if.end3:                                          ; preds = %if.end
  %msgPattern = getelementptr inbounds i8, ptr %this, i64 552
  %msgPattern4 = getelementptr inbounds i8, ptr %rhs, i64 552
  %call.i = tail call noundef zeroext i1 @_ZNK6icu_7514MessagePatterneqERKS0_(ptr noundef nonnull align 8 dereferenceable(127) %msgPattern, ptr noundef nonnull align 8 dereferenceable(127) %msgPattern4)
  br i1 %call.i, label %lor.lhs.false, label %return

lor.lhs.false:                                    ; preds = %if.end3
  %fLocale = getelementptr inbounds i8, ptr %this, i64 328
  %fLocale6 = getelementptr inbounds i8, ptr %rhs, i64 328
  %call.i15 = tail call noundef zeroext i1 @_ZNK6icu_756LocaleeqERKS0_(ptr noundef nonnull align 8 dereferenceable(217) %fLocale, ptr noundef nonnull align 8 dereferenceable(217) %fLocale6)
  br i1 %call.i15, label %if.end9, label %return

if.end9:                                          ; preds = %lor.lhs.false
  %customFormatArgStarts = getelementptr inbounds i8, ptr %this, i64 744
  %0 = load ptr, ptr %customFormatArgStarts, align 8
  %cmp10 = icmp eq ptr %0, null
  %customFormatArgStarts11 = getelementptr inbounds i8, ptr %rhs, i64 744
  %1 = load ptr, ptr %customFormatArgStarts11, align 8
  %2 = icmp eq ptr %1, null
  %cmp14.not.not = xor i1 %cmp10, %2
  %brmerge = or i1 %cmp10, %2
  %not.cmp14.not.not = xor i1 %cmp14.not.not, true
  br i1 %brmerge, label %return, label %if.end20

if.end20:                                         ; preds = %if.end9
  %call22 = tail call i32 @uhash_count_75(ptr noundef nonnull %0)
  %3 = load ptr, ptr %customFormatArgStarts11, align 8
  %call24 = tail call i32 @uhash_count_75(ptr noundef %3)
  %cmp25.not = icmp eq i32 %call22, %call24
  br i1 %cmp25.not, label %if.end27, label %return

if.end27:                                         ; preds = %if.end20
  store i32 -1, ptr %pos, align 4
  store i32 -1, ptr %rhs_pos, align 4
  %cmp2819 = icmp sgt i32 %call22, 0
  br i1 %cmp2819, label %for.body.lr.ph, label %return

for.body.lr.ph:                                   ; preds = %if.end27
  %cachedFormatters = getelementptr inbounds i8, ptr %this, i64 736
  %cachedFormatters41 = getelementptr inbounds i8, ptr %rhs, i64 736
  br label %for.body

for.body:                                         ; preds = %for.body.lr.ph, %for.inc
  %idx.023 = phi i32 [ 0, %for.body.lr.ph ], [ %inc, %for.inc ]
  %4 = load ptr, ptr %customFormatArgStarts, align 8
  %call32 = call ptr @uhash_nextElement_75(ptr noundef %4, ptr noundef nonnull %pos)
  %5 = load ptr, ptr %customFormatArgStarts11, align 8
  %call34 = call ptr @uhash_nextElement_75(ptr noundef %5, ptr noundef nonnull %rhs_pos)
  %key = getelementptr inbounds i8, ptr %call32, i64 16
  %6 = load i32, ptr %key, align 8
  %key35 = getelementptr inbounds i8, ptr %call34, i64 16
  %7 = load i32, ptr %key35, align 8
  %cmp36.not = icmp eq i32 %6, %7
  br i1 %cmp36.not, label %if.end38, label %return

if.end38:                                         ; preds = %for.body
  %8 = load ptr, ptr %cachedFormatters, align 8
  %call40 = call ptr @uhash_iget_75(ptr noundef %8, i32 noundef %6)
  %9 = load ptr, ptr %cachedFormatters41, align 8
  %10 = load i32, ptr %key35, align 8
  %call43 = call ptr @uhash_iget_75(ptr noundef %9, i32 noundef %10)
  %vtable.i = load ptr, ptr %call40, align 8
  %vfn.i = getelementptr inbounds i8, ptr %vtable.i, i64 24
  %11 = load ptr, ptr %vfn.i, align 8
  %call.i17 = call noundef zeroext i1 %11(ptr noundef nonnull align 8 dereferenceable(322) %call40, ptr noundef nonnull align 8 dereferenceable(322) %call43)
  br i1 %call.i17, label %for.inc, label %return

for.inc:                                          ; preds = %if.end38
  %inc = add nuw nsw i32 %idx.023, 1
  %exitcond.not = icmp eq i32 %inc, %call22
  br i1 %exitcond.not, label %return, label %for.body, !llvm.loop !7

return:                                           ; preds = %for.body, %if.end38, %for.inc, %if.end27, %if.end9, %if.end20, %if.end3, %lor.lhs.false, %if.end, %entry
  %retval.0 = phi i1 [ true, %entry ], [ false, %if.end ], [ false, %lor.lhs.false ], [ false, %if.end3 ], [ %not.cmp14.not.not, %if.end9 ], [ false, %if.end20 ], [ true, %if.end27 ], [ false, %for.body ], [ false, %if.end38 ], [ true, %for.inc ]
  ret i1 %retval.0
}